target datalayout = "e-m:e-p270:32:32-p271:32:32-p272:64:64-i64:64-i128:128-f80:128-n8:16:32:64-S128"
target triple = "x86_64-pc-linux-gnu"

%struct.Palette = type { i8, [63 x i16] }
%struct.MvField = type { [2 x %struct.Mv], [2 x i8], i8, i8, i8, i8 }
%struct.Mv = type { i32, i32 }
%struct.CodingUnit = type { i32, i32, i32, i32, i32, i32, i32, i8, i8, i8, i8, i32, i32, i8, i8, i8, i8, i8, i32, i32, i32, i32, i32, i32, [3 x i32], [3 x i32], %struct.anon.3, [4 x i8], [3 x %struct.Palette], [4 x i8], %struct.PredictionUnit, ptr }
%struct.anon.3 = type { ptr, ptr }
%struct.PredictionUnit = type { i8, i8, i8, i8, i8, i8, [2 x %struct.MvField], i32, %struct.MotionInfo, i8, i8, [2 x [16 x i16]], [2 x [16 x i16]], [2 x i32], [4 x i8] }
%struct.MotionInfo = type { i32, [2 x i8], i8, i8, i32, [2 x [3 x %struct.Mv]], i32, i32 }
%struct.TransformUnit = type { i32, i32, i32, i32, [2 x i8], i8, [3 x i8], i8, [3 x %struct.TransformBlock], ptr }
%struct.TransformBlock = type { i8, i8, i8, i32, i32, i32, i32, i32, i32, i32, i32, i32, i32, i32, i32, i32, i32, ptr }

; Function Attrs: nounwind uwtable
define void @ff_vvc_ctu_free_cus(ptr noundef %0) #0 {
  %2 = alloca ptr, align 8
  %3 = alloca ptr, align 8
  %4 = alloca ptr, align 8
  %5 = alloca ptr, align 8
  store ptr %0, ptr %2, align 8, !tbaa !146
  br label %6

6:                                                ; preds = %31, %1
  %7 = load ptr, ptr %2, align 8, !tbaa !146
  %8 = load ptr, ptr %7, align 8, !tbaa !127
  %9 = icmp ne ptr %8, null
  br i1 %9, label %10, label %35

10:                                               ; preds = %6
  call void @llvm.lifetime.start.p0(i64 8, ptr %3) #7
  %11 = load ptr, ptr %2, align 8, !tbaa !146
  %12 = load ptr, ptr %11, align 8, !tbaa !127
  store ptr %12, ptr %3, align 8, !tbaa !127
  call void @llvm.lifetime.start.p0(i64 8, ptr %4) #7
  %13 = load ptr, ptr %3, align 8, !tbaa !127
  %14 = getelementptr inbounds nuw %struct.CodingUnit, ptr %13, i32 0, i32 26
  %15 = getelementptr inbounds nuw %struct.anon.3, ptr %14, i32 0, i32 0
  store ptr %15, ptr %4, align 8, !tbaa !147
  %16 = load ptr, ptr %3, align 8, !tbaa !127
  %17 = getelementptr inbounds nuw %struct.CodingUnit, ptr %16, i32 0, i32 31
  %18 = load ptr, ptr %17, align 8, !tbaa !139
  %19 = load ptr, ptr %2, align 8, !tbaa !146
  store ptr %18, ptr %19, align 8, !tbaa !127
  br label %20

20:                                               ; preds = %24, %10
  %21 = load ptr, ptr %4, align 8, !tbaa !147
  %22 = load ptr, ptr %21, align 8, !tbaa !149
  %23 = icmp ne ptr %22, null
  br i1 %23, label %24, label %31

24:                                               ; preds = %20
  call void @llvm.lifetime.start.p0(i64 8, ptr %5) #7
  %25 = load ptr, ptr %4, align 8, !tbaa !147
  %26 = load ptr, ptr %25, align 8, !tbaa !149
  store ptr %26, ptr %5, align 8, !tbaa !149
  %27 = load ptr, ptr %5, align 8, !tbaa !149
  %28 = getelementptr inbounds nuw %struct.TransformUnit, ptr %27, i32 0, i32 9
  %29 = load ptr, ptr %28, align 8, !tbaa !150
  %30 = load ptr, ptr %4, align 8, !tbaa !147
  store ptr %29, ptr %30, align 8, !tbaa !149
  call void @av_refstruct_unref(ptr noundef %5)
  call void @llvm.lifetime.end.p0(i64 8, ptr %5) #7
  br label %20, !llvm.loop !152

31:                                               ; preds = %20
  %32 = load ptr, ptr %3, align 8, !tbaa !127
  %33 = getelementptr inbounds nuw %struct.CodingUnit, ptr %32, i32 0, i32 26
  %34 = getelementptr inbounds nuw %struct.anon.3, ptr %33, i32 0, i32 1
  store ptr null, ptr %34, align 8, !tbaa !153
  call void @av_refstruct_unref(ptr noundef %3)
  call void @llvm.lifetime.end.p0(i64 8, ptr %4) #7
  call void @llvm.lifetime.end.p0(i64 8, ptr %3) #7
  br label %6, !llvm.loop !154

35:                                               ; preds = %6
  ret void
}