; Function Attrs: nounwind uwtable
define void @ff_vvc_ctu_free_cus(ptr noundef captures(none) %0) local_unnamed_addr #0 {
  %2 = alloca ptr, align 8
  %3 = alloca ptr, align 8
  %4 = load ptr, ptr %0, align 8, !tbaa !139
  %.not8 = icmp eq ptr %4, null
  br i1 %.not8, label %._crit_edge11, label %.lr.ph10

.lr.ph10:                                         ; preds = %1, %._crit_edge
  %5 = phi ptr [ %16, %._crit_edge ], [ %4, %1 ]
  call void @llvm.lifetime.start.p0(i64 8, ptr nonnull %2) #14
  store ptr %5, ptr %2, align 8, !tbaa !139
  %6 = getelementptr inbounds nuw i8, ptr %5, i64 96
  %7 = getelementptr inbounds nuw i8, ptr %5, i64 776
  %8 = load ptr, ptr %7, align 8, !tbaa !169
  store ptr %8, ptr %0, align 8, !tbaa !139
  %9 = load ptr, ptr %6, align 8, !tbaa !184
  %.not67 = icmp eq ptr %9, null
  br i1 %.not67, label %._crit_edge, label %.lr.ph

.lr.ph:                                           ; preds = %.lr.ph10, %.lr.ph
  %10 = phi ptr [ %13, %.lr.ph ], [ %9, %.lr.ph10 ]
  call void @llvm.lifetime.start.p0(i64 8, ptr nonnull %3) #14
  store ptr %10, ptr %3, align 8, !tbaa !184
  %11 = getelementptr inbounds nuw i8, ptr %10, i64 240
  %12 = load ptr, ptr %11, align 8, !tbaa !185
  store ptr %12, ptr %6, align 8, !tbaa !184
  call void @av_refstruct_unref(ptr noundef nonnull %3) #14
  call void @llvm.lifetime.end.p0(i64 8, ptr nonnull %3) #14
  %13 = load ptr, ptr %6, align 8, !tbaa !184
  %.not6 = icmp eq ptr %13, null
  br i1 %.not6, label %._crit_edge.loopexit, label %.lr.ph, !llvm.loop !187

._crit_edge.loopexit:                             ; preds = %.lr.ph
  %.pre = load ptr, ptr %2, align 8, !tbaa !139
  br label %._crit_edge

._crit_edge:                                      ; preds = %._crit_edge.loopexit, %.lr.ph10
  %14 = phi ptr [ %.pre, %._crit_edge.loopexit ], [ %5, %.lr.ph10 ]
  %15 = getelementptr inbounds nuw i8, ptr %14, i64 104
  store ptr null, ptr %15, align 8, !tbaa !188
  call void @av_refstruct_unref(ptr noundef nonnull %2) #14
  call void @llvm.lifetime.end.p0(i64 8, ptr nonnull %2) #14
  %16 = load ptr, ptr %0, align 8, !tbaa !139
  %.not = icmp eq ptr %16, null
  br i1 %.not, label %._crit_edge11, label %.lr.ph10, !llvm.loop !189

._crit_edge11:                                    ; preds = %._crit_edge, %1
  ret void
}